; Function Attrs: mustprogress uwtable
define internal fastcc void @_ZN11OpenImageIO6v3_1_0L12mad_impl_iicIhhEEbRNS0_8ImageBufERKS2_S5_NS0_4spanIKfLm18446744073709551615EEENS0_3ROIEi(ptr noundef nonnull align 8 dereferenceable(16) %0, ptr noundef nonnull align 8 dereferenceable(16) %1, ptr noundef nonnull align 8 dereferenceable(16) %2, ptr %3, i64 %4, ptr noundef readonly byval(%"struct.OpenImageIO::v3_1_0::ROI") align 8 captures(none) %5, i32 noundef %6) unnamed_addr #5 personality ptr @__gxx_personality_v0 {
  %8 = alloca %"class.OpenImageIO::v3_1_0::span", align 8
  %9 = alloca %"class.OpenImageIO::v3_1_0::paropt", align 8
  %10 = alloca %"class.std::function", align 8
  store ptr %3, ptr %8, align 8
  %11 = getelementptr inbounds nuw i8, ptr %8, i64 8
  store i64 %4, ptr %11, align 8
  store i32 %6, ptr %9, align 8, !tbaa !61
  %12 = getelementptr inbounds nuw i8, ptr %9, i64 4
  store i16 0, ptr %12, align 4, !tbaa !66
  %13 = getelementptr inbounds nuw i8, ptr %9, i64 6
  store i16 1, ptr %13, align 2, !tbaa !67
  %14 = getelementptr inbounds nuw i8, ptr %9, i64 8
  store i64 1024, ptr %14, align 8, !tbaa !68
  %15 = getelementptr inbounds nuw i8, ptr %9, i64 16
  store ptr null, ptr %15, align 8, !tbaa !69
  %16 = getelementptr inbounds nuw i8, ptr %9, i64 24
  store i8 0, ptr %16, align 8, !tbaa !70
  %17 = getelementptr inbounds nuw i8, ptr %10, i64 16
  %18 = getelementptr inbounds nuw i8, ptr %10, i64 24
  %19 = getelementptr inbounds nuw i8, ptr %10, i64 8
  store i64 0, ptr %19, align 8
  %20 = tail call noalias noundef nonnull dereferenceable(32) ptr @_Znwm(i64 noundef 32) #29
  store ptr %0, ptr %20, align 16, !tbaa !18
  %.sroa.5.0..sroa_idx = getelementptr inbounds nuw i8, ptr %20, i64 8
  store ptr %1, ptr %.sroa.5.0..sroa_idx, align 8, !tbaa !18
  %.sroa.6.0..sroa_idx = getelementptr inbounds nuw i8, ptr %20, i64 16
  store ptr %2, ptr %.sroa.6.0..sroa_idx, align 16, !tbaa !18
  %.sroa.7.0..sroa_idx = getelementptr inbounds nuw i8, ptr %20, i64 24
  store ptr %8, ptr %.sroa.7.0..sroa_idx, align 8, !tbaa !79
  store ptr %20, ptr %10, align 8, !tbaa !71
  store ptr @_ZNSt17_Function_handlerIFvN11OpenImageIO6v3_1_03ROIEEZNS1_L12mad_impl_iicIhhEEbRNS1_8ImageBufERKS5_S8_NS1_4spanIKfLm18446744073709551615EEES2_iEUlS2_E_E9_M_invokeERKSt9_Any_dataOS2_, ptr %18, align 8, !tbaa !72
  store ptr @_ZNSt17_Function_handlerIFvN11OpenImageIO6v3_1_03ROIEEZNS1_L12mad_impl_iicIhhEEbRNS1_8ImageBufERKS5_S8_NS1_4spanIKfLm18446744073709551615EEES2_iEUlS2_E_E10_M_managerERSt9_Any_dataRKSE_St18_Manager_operation, ptr %17, align 8, !tbaa !75
  invoke void @_ZN11OpenImageIO6v3_1_012ImageBufAlgo14parallel_imageENS0_3ROIENS0_6paroptESt8functionIFvS2_EE(ptr noundef nonnull byval(%"struct.OpenImageIO::v3_1_0::ROI") align 8 %5, ptr noundef nonnull byval(%"class.OpenImageIO::v3_1_0::paropt") align 8 %9, ptr noundef nonnull %10)
          to label %21 unwind label %28

21:                                               ; preds = %7
  %22 = load ptr, ptr %17, align 8, !tbaa !75
  %.not.i = icmp eq ptr %22, null
  br i1 %.not.i, label %_ZNSt14_Function_baseD2Ev.exit, label %23

23:                                               ; preds = %21
  %24 = invoke noundef zeroext i1 %22(ptr noundef nonnull align 8 dereferenceable(32) %10, ptr noundef nonnull align 8 dereferenceable(32) %10, i32 noundef 3)
          to label %_ZNSt14_Function_baseD2Ev.exit unwind label %25

25:                                               ; preds = %23
  %26 = landingpad { ptr, i32 }
          catch ptr null
  %27 = extractvalue { ptr, i32 } %26, 0
  call void @__clang_call_terminate(ptr %27) #28
  unreachable

_ZNSt14_Function_baseD2Ev.exit:                   ; preds = %21, %23
  ret void

28:                                               ; preds = %7
  %29 = landingpad { ptr, i32 }
          cleanup
  %30 = load ptr, ptr %17, align 8, !tbaa !75
  %.not.i5 = icmp eq ptr %30, null
  br i1 %.not.i5, label %_ZNSt14_Function_baseD2Ev.exit6, label %31

31:                                               ; preds = %28
  %32 = invoke noundef zeroext i1 %30(ptr noundef nonnull align 8 dereferenceable(32) %10, ptr noundef nonnull align 8 dereferenceable(32) %10, i32 noundef 3)
          to label %_ZNSt14_Function_baseD2Ev.exit6 unwind label %33

33:                                               ; preds = %31
  %34 = landingpad { ptr, i32 }
          catch ptr null
  %35 = extractvalue { ptr, i32 } %34, 0
  call void @__clang_call_terminate(ptr %35) #28
  unreachable

_ZNSt14_Function_baseD2Ev.exit6:                  ; preds = %28, %31
  resume { ptr, i32 } %29
}